target datalayout = "e-m:e-p270:32:32-p271:32:32-p272:64:64-i64:64-i128:128-f80:128-n8:16:32:64-S128"
target triple = "x86_64-pc-linux-gnu"

%struct.Curl_addrinfo = type { i32, i32, i32, i32, i32, ptr, ptr, ptr }

@Curl_cfree = external global ptr, align 8

; Function Attrs: nounwind uwtable
define dso_local void @Curl_freeaddrinfo(ptr noundef %0) #0 {
  %2 = alloca ptr, align 8
  %3 = alloca ptr, align 8
  %4 = alloca ptr, align 8
  store ptr %0, ptr %2, align 8, !tbaa !4
  call void @llvm.lifetime.start.p0(i64 8, ptr %3) #7
  call void @llvm.lifetime.start.p0(i64 8, ptr %4) #7
  %5 = load ptr, ptr %2, align 8, !tbaa !4
  store ptr %5, ptr %4, align 8, !tbaa !4
  br label %6

6:                                                ; preds = %15, %1
  %7 = load ptr, ptr %4, align 8, !tbaa !4
  %8 = icmp ne ptr %7, null
  br i1 %8, label %9, label %17

9:                                                ; preds = %6
  %10 = load ptr, ptr %4, align 8, !tbaa !4
  %11 = getelementptr inbounds nuw %struct.Curl_addrinfo, ptr %10, i32 0, i32 7
  %12 = load ptr, ptr %11, align 8, !tbaa !9
  store ptr %12, ptr %3, align 8, !tbaa !4
  %13 = load ptr, ptr @Curl_cfree, align 8, !tbaa !14
  %14 = load ptr, ptr %4, align 8, !tbaa !4
  call void %13(ptr noundef %14)
  br label %15

15:                                               ; preds = %9
  %16 = load ptr, ptr %3, align 8, !tbaa !4
  store ptr %16, ptr %4, align 8, !tbaa !4
  br label %6, !llvm.loop !15

17:                                               ; preds = %6
  call void @llvm.lifetime.end.p0(i64 8, ptr %4) #7
  call void @llvm.lifetime.end.p0(i64 8, ptr %3) #7
  ret void
}