; Function Attrs: nounwind uwtable
define dso_local void @Curl_freeaddrinfo(ptr noundef %0) local_unnamed_addr #0 {
  %.not5 = icmp eq ptr %0, null
  br i1 %.not5, label %._crit_edge, label %.lr.ph

.lr.ph:                                           ; preds = %1, %.lr.ph
  %.06 = phi ptr [ %3, %.lr.ph ], [ %0, %1 ]
  %2 = getelementptr inbounds nuw i8, ptr %.06, i64 40
  %3 = load ptr, ptr %2, align 8, !tbaa !4
  %4 = load ptr, ptr @Curl_cfree, align 8, !tbaa !13
  tail call void %4(ptr noundef nonnull %.06) #8
  %.not = icmp eq ptr %3, null
  br i1 %.not, label %._crit_edge, label %.lr.ph, !llvm.loop !14

._crit_edge:                                      ; preds = %.lr.ph, %1
  ret void
}